target datalayout = "e-m:e-p270:32:32-p271:32:32-p272:64:64-i64:64-i128:128-f80:128-n8:16:32:64-S128"
target triple = "x86_64-pc-linux-gnu"

%struct.Vec_Wrd_t_ = type { i32, i32, ptr }

@.str.40 = private unnamed_addr constant [3 x i8] c"wb\00", align 1
@.str.41 = private unnamed_addr constant [36 x i8] c"Cannot open file \22%s\22 for writing.\0A\00", align 1
@.str.42 = private unnamed_addr constant [31 x i8] c"Error reading data from file.\0A\00", align 1
@.str.43 = private unnamed_addr constant [53 x i8] c"Written %d words of simulation data into file \22%s\22.\0A\00", align 1

; Function Attrs: inlinehint nounwind uwtable
define internal i32 @Vec_WrdSize(ptr noundef %0) #3 {
  %2 = alloca ptr, align 8
  store ptr %0, ptr %2, align 8, !tbaa !71
  %3 = load ptr, ptr %2, align 8, !tbaa !71
  %4 = getelementptr inbounds nuw %struct.Vec_Wrd_t_, ptr %3, i32 0, i32 1
  %5 = load i32, ptr %4, align 4, !tbaa !76
  ret i32 %5
}

; Function Attrs: inlinehint nounwind uwtable
define internal ptr @Vec_WrdArray(ptr noundef %0) #3 {
  %2 = alloca ptr, align 8
  store ptr %0, ptr %2, align 8, !tbaa !71
  %3 = load ptr, ptr %2, align 8, !tbaa !71
  %4 = getelementptr inbounds nuw %struct.Vec_Wrd_t_, ptr %3, i32 0, i32 2
  %5 = load ptr, ptr %4, align 8, !tbaa !78
  ret ptr %5
}

; Function Attrs: inlinehint nounwind uwtable
define internal void @Vec_WrdFree(ptr noundef %0) #3 {
  %2 = alloca ptr, align 8
  store ptr %0, ptr %2, align 8, !tbaa !71
  %3 = load ptr, ptr %2, align 8, !tbaa !71
  %4 = getelementptr inbounds nuw %struct.Vec_Wrd_t_, ptr %3, i32 0, i32 2
  %5 = load ptr, ptr %4, align 8, !tbaa !78
  %6 = icmp ne ptr %5, null
  br i1 %6, label %7, label %13

7:                                                ; preds = %1
  %8 = load ptr, ptr %2, align 8, !tbaa !71
  %9 = getelementptr inbounds nuw %struct.Vec_Wrd_t_, ptr %8, i32 0, i32 2
  %10 = load ptr, ptr %9, align 8, !tbaa !78
  call void @free(ptr noundef %10) #13
  %11 = load ptr, ptr %2, align 8, !tbaa !71
  %12 = getelementptr inbounds nuw %struct.Vec_Wrd_t_, ptr %11, i32 0, i32 2
  store ptr null, ptr %12, align 8, !tbaa !78
  br label %14

13:                                               ; preds = %1
  br label %14

14:                                               ; preds = %13, %7
  %15 = load ptr, ptr %2, align 8, !tbaa !71
  %16 = icmp ne ptr %15, null
  br i1 %16, label %17, label %19

17:                                               ; preds = %14
  %18 = load ptr, ptr %2, align 8, !tbaa !71
  call void @free(ptr noundef %18) #13
  store ptr null, ptr %2, align 8, !tbaa !71
  br label %20

19:                                               ; preds = %14
  br label %20

20:                                               ; preds = %19, %17
  ret void
}

; Function Attrs: inlinehint nounwind uwtable
define internal void @Vec_WrdDumpBin(ptr noundef %0, ptr noundef %1, i32 noundef %2) #3 {
  %4 = alloca ptr, align 8
  %5 = alloca ptr, align 8
  %6 = alloca i32, align 4
  %7 = alloca i32, align 4
  %8 = alloca ptr, align 8
  %9 = alloca i32, align 4
  store ptr %0, ptr %4, align 8, !tbaa !3
  store ptr %1, ptr %5, align 8, !tbaa !71
  store i32 %2, ptr %6, align 4, !tbaa !14
  call void @llvm.lifetime.start.p0(i64 4, ptr %7) #13
  call void @llvm.lifetime.start.p0(i64 8, ptr %8) #13
  %10 = load ptr, ptr %4, align 8, !tbaa !3
  %11 = call noalias ptr @fopen(ptr noundef %10, ptr noundef @.str.40)
  store ptr %11, ptr %8, align 8, !tbaa !10
  %12 = load ptr, ptr %8, align 8, !tbaa !10
  %13 = icmp eq ptr %12, null
  br i1 %13, label %14, label %17

14:                                               ; preds = %3
  %15 = load ptr, ptr %4, align 8, !tbaa !3
  %16 = call i32 (ptr, ...) @printf(ptr noundef @.str.41, ptr noundef %15)
  store i32 1, ptr %9, align 4
  br label %45

17:                                               ; preds = %3
  %18 = load ptr, ptr %5, align 8, !tbaa !71
  %19 = call ptr @Vec_WrdArray(ptr noundef %18)
  %20 = load ptr, ptr %5, align 8, !tbaa !71
  %21 = call i32 @Vec_WrdSize(ptr noundef %20)
  %22 = mul nsw i32 8, %21
  %23 = sext i32 %22 to i64
  %24 = load ptr, ptr %8, align 8, !tbaa !10
  %25 = call i64 @fwrite(ptr noundef %19, i64 noundef 1, i64 noundef %23, ptr noundef %24)
  %26 = trunc i64 %25 to i32
  store i32 %26, ptr %7, align 4, !tbaa !14
  %27 = load ptr, ptr %8, align 8, !tbaa !10
  %28 = call i32 @fclose(ptr noundef %27)
  %29 = load i32, ptr %7, align 4, !tbaa !14
  %30 = load ptr, ptr %5, align 8, !tbaa !71
  %31 = call i32 @Vec_WrdSize(ptr noundef %30)
  %32 = mul nsw i32 8, %31
  %33 = icmp ne i32 %29, %32
  br i1 %33, label %34, label %36

34:                                               ; preds = %17
  %35 = call i32 (ptr, ...) @printf(ptr noundef @.str.42)
  br label %36

36:                                               ; preds = %34, %17
  %37 = load i32, ptr %6, align 4, !tbaa !14
  %38 = icmp ne i32 %37, 0
  br i1 %38, label %39, label %44

39:                                               ; preds = %36
  %40 = load ptr, ptr %5, align 8, !tbaa !71
  %41 = call i32 @Vec_WrdSize(ptr noundef %40)
  %42 = load ptr, ptr %4, align 8, !tbaa !3
  %43 = call i32 (ptr, ...) @printf(ptr noundef @.str.43, i32 noundef %41, ptr noundef %42)
  br label %44

44:                                               ; preds = %39, %36
  store i32 0, ptr %9, align 4
  br label %45

45:                                               ; preds = %44, %14
  call void @llvm.lifetime.end.p0(i64 8, ptr %8) #13
  call void @llvm.lifetime.end.p0(i64 4, ptr %7) #13
  %46 = load i32, ptr %9, align 4
  switch i32 %46, label %48 [
    i32 0, label %47
    i32 1, label %47
  ]

47:                                               ; preds = %45, %45
  ret void

48:                                               ; preds = %45
  unreachable
}

; Function Attrs: nounwind uwtable
define void @Gia_ManReadSimInfoOutputs(ptr noundef %0, ptr noundef %1, i32 noundef %2) #0 {
  %4 = alloca ptr, align 8
  %5 = alloca ptr, align 8
  %6 = alloca i32, align 4
  %7 = alloca ptr, align 8
  store ptr %0, ptr %4, align 8, !tbaa !3
  store ptr %1, ptr %5, align 8, !tbaa !3
  store i32 %2, ptr %6, align 4, !tbaa !14
  call void @llvm.lifetime.start.p0(i64 8, ptr %7) #13
  %8 = load ptr, ptr %4, align 8, !tbaa !3
  %9 = load i32, ptr %6, align 4, !tbaa !14
  %10 = call ptr @Vec_WrdReadTextOut(ptr noundef %8, i32 noundef %9)
  store ptr %10, ptr %7, align 8, !tbaa !71
  %11 = load ptr, ptr %5, align 8, !tbaa !3
  %12 = load ptr, ptr %7, align 8, !tbaa !71
  call void @Vec_WrdDumpBin(ptr noundef %11, ptr noundef %12, i32 noundef 1)
  %13 = load ptr, ptr %7, align 8, !tbaa !71
  call void @Vec_WrdFree(ptr noundef %13)
  call void @llvm.lifetime.end.p0(i64 8, ptr %7) #13
  ret void
}