; Function Attrs: nounwind uwtable
define void @Gia_ManReadSimInfoOutputs(ptr noundef %0, ptr noundef %1, i32 noundef %2) local_unnamed_addr #0 {
  %4 = tail call ptr @Vec_WrdReadTextOut(ptr noundef %0, i32 noundef %2)
  %5 = tail call noalias ptr @fopen(ptr noundef %1, ptr noundef nonnull @.str.40)
  %6 = icmp eq ptr %5, null
  br i1 %6, label %7, label %9

7:                                                ; preds = %3
  %8 = tail call i32 (ptr, ...) @printf(ptr noundef nonnull dereferenceable(1) @.str.41, ptr noundef %1)
  %.phi.trans.insert = getelementptr inbounds nuw i8, ptr %4, i64 8
  %.pre = load ptr, ptr %.phi.trans.insert, align 8, !tbaa !59
  br label %Vec_WrdDumpBin.exit

9:                                                ; preds = %3
  %10 = getelementptr i8, ptr %4, i64 8
  %.val.i = load ptr, ptr %10, align 8, !tbaa !59
  %11 = getelementptr i8, ptr %4, i64 4
  %.val12.i = load i32, ptr %11, align 4, !tbaa !60
  %12 = shl nsw i32 %.val12.i, 3
  %13 = sext i32 %12 to i64
  %14 = tail call i64 @fwrite(ptr noundef %.val.i, i64 noundef 1, i64 noundef %13, ptr noundef nonnull %5)
  %15 = trunc i64 %14 to i32
  %16 = tail call i32 @fclose(ptr noundef nonnull %5)
  %.not.i = icmp eq i32 %12, %15
  br i1 %.not.i, label %18, label %17

17:                                               ; preds = %9
  %puts.i = tail call i32 @puts(ptr nonnull dereferenceable(1) @str.1)
  br label %18

18:                                               ; preds = %17, %9
  %19 = tail call i32 (ptr, ...) @printf(ptr noundef nonnull dereferenceable(1) @.str.43, i32 noundef %.val12.i, ptr noundef %1)
  br label %Vec_WrdDumpBin.exit

Vec_WrdDumpBin.exit:                              ; preds = %7, %18
  %20 = phi ptr [ %.pre, %7 ], [ %.val.i, %18 ]
  %.not.i4 = icmp eq ptr %20, null
  br i1 %.not.i4, label %Vec_WrdFree.exit, label %21

21:                                               ; preds = %Vec_WrdDumpBin.exit
  tail call void @free(ptr noundef nonnull %20) #24
  br label %Vec_WrdFree.exit

Vec_WrdFree.exit:                                 ; preds = %Vec_WrdDumpBin.exit, %21
  tail call void @free(ptr noundef nonnull %4) #24
  ret void
}